target datalayout = "e-m:e-p270:32:32-p271:32:32-p272:64:64-i64:64-i128:128-f80:128-n8:16:32:64-S128"
target triple = "x86_64-pc-linux-gnu"

%struct.EllipseEquation = type { [7 x double] }
%struct.MyArc = type { double, double, double, double, double, double, double, i32, i32, i32, i32, i32, i32, ptr, ptr, i32, i8, %struct.EllipseEquation, double }

; Function Attrs: mustprogress uwtable
define hidden void @_ZN2cv8ximgproc15EdgeDrawingImpl6addArcEP5MyArcRiddddddiiP15EllipseEquationdiiiiPdS7_id(ptr noundef %0, ptr noundef nonnull align 4 dereferenceable(4) %1, double noundef %2, double noundef %3, double noundef %4, double noundef %5, double noundef %6, double noundef %7, i32 noundef %8, i32 noundef %9, ptr noundef %10, double noundef %11, i32 noundef %12, i32 noundef %13, i32 noundef %14, i32 noundef %15, ptr noundef %16, ptr noundef %17, i32 noundef %18, double noundef %19) #4 align 2 {
  %21 = alloca ptr, align 8
  %22 = alloca ptr, align 8
  %23 = alloca double, align 8
  %24 = alloca double, align 8
  %25 = alloca double, align 8
  %26 = alloca double, align 8
  %27 = alloca double, align 8
  %28 = alloca double, align 8
  %29 = alloca i32, align 4
  %30 = alloca i32, align 4
  %31 = alloca ptr, align 8
  %32 = alloca double, align 8
  %33 = alloca i32, align 4
  %34 = alloca i32, align 4
  %35 = alloca i32, align 4
  %36 = alloca i32, align 4
  %37 = alloca ptr, align 8
  %38 = alloca ptr, align 8
  %39 = alloca i32, align 4
  %40 = alloca double, align 8
  store ptr %0, ptr %21, align 8, !tbaa !463
  store ptr %1, ptr %22, align 8, !tbaa !131
  store double %2, ptr %23, align 8, !tbaa !10
  store double %3, ptr %24, align 8, !tbaa !10
  store double %4, ptr %25, align 8, !tbaa !10
  store double %5, ptr %26, align 8, !tbaa !10
  store double %6, ptr %27, align 8, !tbaa !10
  store double %7, ptr %28, align 8, !tbaa !10
  store i32 %8, ptr %29, align 4, !tbaa !8
  store i32 %9, ptr %30, align 4, !tbaa !8
  store ptr %10, ptr %31, align 8, !tbaa !421
  store double %11, ptr %32, align 8, !tbaa !10
  store i32 %12, ptr %33, align 4, !tbaa !8
  store i32 %13, ptr %34, align 4, !tbaa !8
  store i32 %14, ptr %35, align 4, !tbaa !8
  store i32 %15, ptr %36, align 4, !tbaa !8
  store ptr %16, ptr %37, align 8, !tbaa !42
  store ptr %17, ptr %38, align 8, !tbaa !42
  store i32 %18, ptr %39, align 4, !tbaa !8
  store double %19, ptr %40, align 8, !tbaa !10
  %41 = load double, ptr %23, align 8, !tbaa !10
  %42 = load ptr, ptr %21, align 8, !tbaa !463
  %43 = load ptr, ptr %22, align 8, !tbaa !131
  %44 = load i32, ptr %43, align 4, !tbaa !8
  %45 = sext i32 %44 to i64
  %46 = getelementptr inbounds %struct.MyArc, ptr %42, i64 %45
  %47 = getelementptr inbounds nuw %struct.MyArc, ptr %46, i32 0, i32 0
  store double %41, ptr %47, align 8, !tbaa !470
  %48 = load double, ptr %24, align 8, !tbaa !10
  %49 = load ptr, ptr %21, align 8, !tbaa !463
  %50 = load ptr, ptr %22, align 8, !tbaa !131
  %51 = load i32, ptr %50, align 4, !tbaa !8
  %52 = sext i32 %51 to i64
  %53 = getelementptr inbounds %struct.MyArc, ptr %49, i64 %52
  %54 = getelementptr inbounds nuw %struct.MyArc, ptr %53, i32 0, i32 1
  store double %48, ptr %54, align 8, !tbaa !471
  %55 = load double, ptr %25, align 8, !tbaa !10
  %56 = load ptr, ptr %21, align 8, !tbaa !463
  %57 = load ptr, ptr %22, align 8, !tbaa !131
  %58 = load i32, ptr %57, align 4, !tbaa !8
  %59 = sext i32 %58 to i64
  %60 = getelementptr inbounds %struct.MyArc, ptr %56, i64 %59
  %61 = getelementptr inbounds nuw %struct.MyArc, ptr %60, i32 0, i32 2
  store double %55, ptr %61, align 8, !tbaa !472
  %62 = load double, ptr %26, align 8, !tbaa !10
  %63 = load ptr, ptr %21, align 8, !tbaa !463
  %64 = load ptr, ptr %22, align 8, !tbaa !131
  %65 = load i32, ptr %64, align 4, !tbaa !8
  %66 = sext i32 %65 to i64
  %67 = getelementptr inbounds %struct.MyArc, ptr %63, i64 %66
  %68 = getelementptr inbounds nuw %struct.MyArc, ptr %67, i32 0, i32 3
  store double %62, ptr %68, align 8, !tbaa !473
  %69 = load double, ptr %27, align 8, !tbaa !10
  %70 = load ptr, ptr %21, align 8, !tbaa !463
  %71 = load ptr, ptr %22, align 8, !tbaa !131
  %72 = load i32, ptr %71, align 4, !tbaa !8
  %73 = sext i32 %72 to i64
  %74 = getelementptr inbounds %struct.MyArc, ptr %70, i64 %73
  %75 = getelementptr inbounds nuw %struct.MyArc, ptr %74, i32 0, i32 4
  store double %69, ptr %75, align 8, !tbaa !482
  %76 = load double, ptr %28, align 8, !tbaa !10
  %77 = load ptr, ptr %21, align 8, !tbaa !463
  %78 = load ptr, ptr %22, align 8, !tbaa !131
  %79 = load i32, ptr %78, align 4, !tbaa !8
  %80 = sext i32 %79 to i64
  %81 = getelementptr inbounds %struct.MyArc, ptr %77, i64 %80
  %82 = getelementptr inbounds nuw %struct.MyArc, ptr %81, i32 0, i32 5
  store double %76, ptr %82, align 8, !tbaa !483
  %83 = load double, ptr %40, align 8, !tbaa !10
  %84 = fsub double 1.000000e+00, %83
  %85 = load i32, ptr %39, align 4, !tbaa !8
  %86 = sitofp i32 %85 to double
  %87 = fmul double %84, %86
  %88 = load ptr, ptr %31, align 8, !tbaa !421
  %89 = call noundef double @_ZN2cv8ximgproc15EdgeDrawingImpl23computeEllipsePerimeterEP15EllipseEquation(ptr noundef %88)
  %90 = fdiv double %87, %89
  %91 = load ptr, ptr %21, align 8, !tbaa !463
  %92 = load ptr, ptr %22, align 8, !tbaa !131
  %93 = load i32, ptr %92, align 4, !tbaa !8
  %94 = sext i32 %93 to i64
  %95 = getelementptr inbounds %struct.MyArc, ptr %91, i64 %94
  %96 = getelementptr inbounds nuw %struct.MyArc, ptr %95, i32 0, i32 6
  store double %90, ptr %96, align 8, !tbaa !519
  %97 = load i32, ptr %29, align 4, !tbaa !8
  %98 = load ptr, ptr %21, align 8, !tbaa !463
  %99 = load ptr, ptr %22, align 8, !tbaa !131
  %100 = load i32, ptr %99, align 4, !tbaa !8
  %101 = sext i32 %100 to i64
  %102 = getelementptr inbounds %struct.MyArc, ptr %98, i64 %101
  %103 = getelementptr inbounds nuw %struct.MyArc, ptr %102, i32 0, i32 7
  store i32 %97, ptr %103, align 8, !tbaa !474
  %104 = load i32, ptr %30, align 4, !tbaa !8
  %105 = load ptr, ptr %21, align 8, !tbaa !463
  %106 = load ptr, ptr %22, align 8, !tbaa !131
  %107 = load i32, ptr %106, align 4, !tbaa !8
  %108 = sext i32 %107 to i64
  %109 = getelementptr inbounds %struct.MyArc, ptr %105, i64 %108
  %110 = getelementptr inbounds nuw %struct.MyArc, ptr %109, i32 0, i32 8
  store i32 %104, ptr %110, align 4, !tbaa !493
  %111 = load ptr, ptr %21, align 8, !tbaa !463
  %112 = load ptr, ptr %22, align 8, !tbaa !131
  %113 = load i32, ptr %112, align 4, !tbaa !8
  %114 = sext i32 %113 to i64
  %115 = getelementptr inbounds %struct.MyArc, ptr %111, i64 %114
  %116 = getelementptr inbounds nuw %struct.MyArc, ptr %115, i32 0, i32 16
  store i8 1, ptr %116, align 4, !tbaa !467
  %117 = load ptr, ptr %31, align 8, !tbaa !421
  %118 = load ptr, ptr %21, align 8, !tbaa !463
  %119 = load ptr, ptr %22, align 8, !tbaa !131
  %120 = load i32, ptr %119, align 4, !tbaa !8
  %121 = sext i32 %120 to i64
  %122 = getelementptr inbounds %struct.MyArc, ptr %118, i64 %121
  %123 = getelementptr inbounds nuw %struct.MyArc, ptr %122, i32 0, i32 17
  call void @llvm.memcpy.p0.p0.i64(ptr align 8 %123, ptr align 8 %117, i64 56, i1 false), !tbaa.struct !405
  %124 = load double, ptr %32, align 8, !tbaa !10
  %125 = load ptr, ptr %21, align 8, !tbaa !463
  %126 = load ptr, ptr %22, align 8, !tbaa !131
  %127 = load i32, ptr %126, align 4, !tbaa !8
  %128 = sext i32 %127 to i64
  %129 = getelementptr inbounds %struct.MyArc, ptr %125, i64 %128
  %130 = getelementptr inbounds nuw %struct.MyArc, ptr %129, i32 0, i32 18
  store double %124, ptr %130, align 8, !tbaa !520
  %131 = load i32, ptr %33, align 4, !tbaa !8
  %132 = load ptr, ptr %21, align 8, !tbaa !463
  %133 = load ptr, ptr %22, align 8, !tbaa !131
  %134 = load i32, ptr %133, align 4, !tbaa !8
  %135 = sext i32 %134 to i64
  %136 = getelementptr inbounds %struct.MyArc, ptr %132, i64 %135
  %137 = getelementptr inbounds nuw %struct.MyArc, ptr %136, i32 0, i32 9
  store i32 %131, ptr %137, align 8, !tbaa !476
  %138 = load i32, ptr %34, align 4, !tbaa !8
  %139 = load ptr, ptr %21, align 8, !tbaa !463
  %140 = load ptr, ptr %22, align 8, !tbaa !131
  %141 = load i32, ptr %140, align 4, !tbaa !8
  %142 = sext i32 %141 to i64
  %143 = getelementptr inbounds %struct.MyArc, ptr %139, i64 %142
  %144 = getelementptr inbounds nuw %struct.MyArc, ptr %143, i32 0, i32 10
  store i32 %138, ptr %144, align 4, !tbaa !477
  %145 = load i32, ptr %35, align 4, !tbaa !8
  %146 = load ptr, ptr %21, align 8, !tbaa !463
  %147 = load ptr, ptr %22, align 8, !tbaa !131
  %148 = load i32, ptr %147, align 4, !tbaa !8
  %149 = sext i32 %148 to i64
  %150 = getelementptr inbounds %struct.MyArc, ptr %146, i64 %149
  %151 = getelementptr inbounds nuw %struct.MyArc, ptr %150, i32 0, i32 11
  store i32 %145, ptr %151, align 8, !tbaa !478
  %152 = load i32, ptr %36, align 4, !tbaa !8
  %153 = load ptr, ptr %21, align 8, !tbaa !463
  %154 = load ptr, ptr %22, align 8, !tbaa !131
  %155 = load i32, ptr %154, align 4, !tbaa !8
  %156 = sext i32 %155 to i64
  %157 = getelementptr inbounds %struct.MyArc, ptr %153, i64 %156
  %158 = getelementptr inbounds nuw %struct.MyArc, ptr %157, i32 0, i32 12
  store i32 %152, ptr %158, align 4, !tbaa !479
  %159 = load ptr, ptr %37, align 8, !tbaa !42
  %160 = load ptr, ptr %21, align 8, !tbaa !463
  %161 = load ptr, ptr %22, align 8, !tbaa !131
  %162 = load i32, ptr %161, align 4, !tbaa !8
  %163 = sext i32 %162 to i64
  %164 = getelementptr inbounds %struct.MyArc, ptr %160, i64 %163
  %165 = getelementptr inbounds nuw %struct.MyArc, ptr %164, i32 0, i32 13
  store ptr %159, ptr %165, align 8, !tbaa !480
  %166 = load ptr, ptr %38, align 8, !tbaa !42
  %167 = load ptr, ptr %21, align 8, !tbaa !463
  %168 = load ptr, ptr %22, align 8, !tbaa !131
  %169 = load i32, ptr %168, align 4, !tbaa !8
  %170 = sext i32 %169 to i64
  %171 = getelementptr inbounds %struct.MyArc, ptr %167, i64 %170
  %172 = getelementptr inbounds nuw %struct.MyArc, ptr %171, i32 0, i32 14
  store ptr %166, ptr %172, align 8, !tbaa !481
  %173 = load i32, ptr %39, align 4, !tbaa !8
  %174 = load ptr, ptr %21, align 8, !tbaa !463
  %175 = load ptr, ptr %22, align 8, !tbaa !131
  %176 = load i32, ptr %175, align 4, !tbaa !8
  %177 = sext i32 %176 to i64
  %178 = getelementptr inbounds %struct.MyArc, ptr %174, i64 %177
  %179 = getelementptr inbounds nuw %struct.MyArc, ptr %178, i32 0, i32 15
  store i32 %173, ptr %179, align 8, !tbaa !475
  %180 = load ptr, ptr %22, align 8, !tbaa !131
  %181 = load i32, ptr %180, align 4, !tbaa !8
  %182 = add nsw i32 %181, 1
  store i32 %182, ptr %180, align 4, !tbaa !8
  ret void
}