; Function Attrs: mustprogress nofree nounwind willreturn memory(write, argmem: readwrite) uwtable
define hidden void @_ZN2cv8ximgproc15EdgeDrawingImpl6addArcEP5MyArcRiddddddiiP15EllipseEquationdiiiiPdS7_id(ptr noundef writeonly captures(none) %0, ptr noundef nonnull align 4 captures(none) dereferenceable(4) %1, double noundef %2, double noundef %3, double noundef %4, double noundef %5, double noundef %6, double noundef %7, i32 noundef %8, i32 noundef %9, ptr noundef readonly captures(none) %10, double noundef %11, i32 noundef %12, i32 noundef %13, i32 noundef %14, i32 noundef %15, ptr noundef %16, ptr noundef %17, i32 noundef %18, double noundef %19) local_unnamed_addr #23 align 2 {
  %21 = load i32, ptr %1, align 4, !tbaa !15
  %22 = sext i32 %21 to i64
  %23 = getelementptr inbounds %struct.MyArc, ptr %0, i64 %22
  store double %2, ptr %23, align 8, !tbaa !449
  %24 = getelementptr inbounds %struct.MyArc, ptr %0, i64 %22, i32 1
  store double %3, ptr %24, align 8, !tbaa !451
  %25 = getelementptr inbounds %struct.MyArc, ptr %0, i64 %22, i32 2
  store double %4, ptr %25, align 8, !tbaa !452
  %26 = getelementptr inbounds %struct.MyArc, ptr %0, i64 %22, i32 3
  store double %5, ptr %26, align 8, !tbaa !453
  %27 = getelementptr inbounds %struct.MyArc, ptr %0, i64 %22, i32 4
  store double %6, ptr %27, align 8, !tbaa !454
  %28 = getelementptr inbounds %struct.MyArc, ptr %0, i64 %22, i32 5
  store double %7, ptr %28, align 8, !tbaa !455
  %29 = fsub double 1.000000e+00, %19
  %30 = sitofp i32 %18 to double
  %31 = fmul double %29, %30
  %32 = tail call noundef double @_ZN2cv8ximgproc15EdgeDrawingImpl23computeEllipsePerimeterEP15EllipseEquation(ptr noundef %10)
  %33 = fdiv double %31, %32
  %34 = load i32, ptr %1, align 4, !tbaa !15
  %35 = sext i32 %34 to i64
  %36 = getelementptr inbounds %struct.MyArc, ptr %0, i64 %35, i32 6
  store double %33, ptr %36, align 8, !tbaa !456
  %37 = getelementptr inbounds %struct.MyArc, ptr %0, i64 %35, i32 7
  store i32 %8, ptr %37, align 8, !tbaa !457
  %38 = load i32, ptr %1, align 4, !tbaa !15
  %39 = sext i32 %38 to i64
  %40 = getelementptr inbounds %struct.MyArc, ptr %0, i64 %39, i32 8
  store i32 %9, ptr %40, align 4, !tbaa !458
  %41 = load i32, ptr %1, align 4, !tbaa !15
  %42 = sext i32 %41 to i64
  %43 = getelementptr inbounds %struct.MyArc, ptr %0, i64 %42, i32 16
  store i8 1, ptr %43, align 4, !tbaa !459
  %44 = getelementptr inbounds %struct.MyArc, ptr %0, i64 %42, i32 17
  tail call void @llvm.memcpy.p0.p0.i64(ptr noundef nonnull align 8 dereferenceable(56) %44, ptr noundef nonnull align 8 dereferenceable(56) %10, i64 56, i1 false), !tbaa.struct !377
  %45 = load i32, ptr %1, align 4, !tbaa !15
  %46 = sext i32 %45 to i64
  %47 = getelementptr inbounds %struct.MyArc, ptr %0, i64 %46, i32 18
  store double %11, ptr %47, align 8, !tbaa !469
  %48 = getelementptr inbounds %struct.MyArc, ptr %0, i64 %46, i32 9
  store i32 %12, ptr %48, align 8, !tbaa !460
  %49 = load i32, ptr %1, align 4, !tbaa !15
  %50 = sext i32 %49 to i64
  %51 = getelementptr inbounds %struct.MyArc, ptr %0, i64 %50, i32 10
  store i32 %13, ptr %51, align 4, !tbaa !461
  %52 = load i32, ptr %1, align 4, !tbaa !15
  %53 = sext i32 %52 to i64
  %54 = getelementptr inbounds %struct.MyArc, ptr %0, i64 %53, i32 11
  store i32 %14, ptr %54, align 8, !tbaa !462
  %55 = load i32, ptr %1, align 4, !tbaa !15
  %56 = sext i32 %55 to i64
  %57 = getelementptr inbounds %struct.MyArc, ptr %0, i64 %56, i32 12
  store i32 %15, ptr %57, align 4, !tbaa !463
  %58 = load i32, ptr %1, align 4, !tbaa !15
  %59 = sext i32 %58 to i64
  %60 = getelementptr inbounds %struct.MyArc, ptr %0, i64 %59, i32 13
  store ptr %16, ptr %60, align 8, !tbaa !464
  %61 = getelementptr inbounds %struct.MyArc, ptr %0, i64 %59, i32 14
  store ptr %17, ptr %61, align 8, !tbaa !465
  %62 = getelementptr inbounds %struct.MyArc, ptr %0, i64 %59, i32 15
  store i32 %18, ptr %62, align 8, !tbaa !466
  %63 = load i32, ptr %1, align 4, !tbaa !15
  %64 = add nsw i32 %63, 1
  store i32 %64, ptr %1, align 4, !tbaa !15
  ret void
}